; Function Attrs: nounwind uwtable
define hidden void @zif_ord(ptr noundef %0, ptr noundef writeonly captures(none) %1) local_unnamed_addr #0 {
  %3 = alloca ptr, align 8
  call void @llvm.lifetime.start.p0(i64 8, ptr nonnull %3) #28
  %4 = getelementptr inbounds nuw i8, ptr %0, i64 44
  %5 = load i32, ptr %4, align 4, !tbaa !10
  %cond = icmp eq i32 %5, 1
  br i1 %cond, label %6, label %.thread52, !prof !11

.thread52:                                        ; preds = %2
  tail call void @zend_wrong_parameters_count_error(i32 noundef 1, i32 noundef 1) #28
  br label %12

6:                                                ; preds = %2
  %7 = getelementptr inbounds nuw i8, ptr %0, i64 80
  %8 = getelementptr inbounds nuw i8, ptr %0, i64 88
  %9 = load i8, ptr %8, align 8, !tbaa !10
  %10 = icmp eq i8 %9, 6
  br i1 %10, label %.critedge, label %zend_parse_arg_str_ex.exit, !prof !12

zend_parse_arg_str_ex.exit:                       ; preds = %6
  %11 = call zeroext i1 @zend_parse_arg_str_slow(ptr noundef nonnull %7, ptr noundef nonnull %3, i32 noundef 1) #28
  %cond.fr42 = freeze i1 %11
  br i1 %cond.fr42, label %.critedge, label %12, !prof !15

12:                                               ; preds = %zend_parse_arg_str_ex.exit, %.thread52
  %.061 = phi i32 [ 0, %.thread52 ], [ 1, %zend_parse_arg_str_ex.exit ]
  %.03560 = phi i32 [ 1, %.thread52 ], [ 9, %zend_parse_arg_str_ex.exit ]
  %.03659 = phi ptr [ null, %.thread52 ], [ %7, %zend_parse_arg_str_ex.exit ]
  %.03758 = phi i32 [ 0, %.thread52 ], [ 4, %zend_parse_arg_str_ex.exit ]
  call void @zend_wrong_parameter_error(i32 noundef %.03560, i32 noundef %.061, ptr noundef null, i32 noundef %.03758, ptr noundef %.03659) #28
  br label %18

.critedge:                                        ; preds = %zend_parse_arg_str_ex.exit, %6
  %.in = phi ptr [ %7, %6 ], [ %3, %zend_parse_arg_str_ex.exit ]
  %13 = load ptr, ptr %.in, align 8, !tbaa !10
  %14 = getelementptr inbounds nuw i8, ptr %13, i64 24
  %15 = load i8, ptr %14, align 8, !tbaa !10
  %16 = zext i8 %15 to i64
  store i64 %16, ptr %1, align 8, !tbaa !10
  %17 = getelementptr inbounds nuw i8, ptr %1, i64 8
  store i32 4, ptr %17, align 8, !tbaa !10
  br label %18

18:                                               ; preds = %12, %.critedge
  call void @llvm.lifetime.end.p0(i64 8, ptr nonnull %3) #28
  ret void
}